; ModuleID = '11/1134.c'
source_filename = "11/1134.c"
target datalayout = "e-m:e-p270:32:32-p271:32:32-p272:64:64-i64:64-f80:128-n8:16:32:64-S128"
target triple = "x86_64-pc-linux-gnu"

@__const.main.mon = private unnamed_addr constant [13 x i32] [i32 0, i32 31, i32 28, i32 31, i32 30, i32 31, i32 30, i32 31, i32 31, i32 30, i32 31, i32 30, i32 31], align 16
@.str = private unnamed_addr constant [7 x i8] c"%d%d%d\00", align 1
@.str.1 = private unnamed_addr constant [3 x i8] c"%d\00", align 1

; Function Attrs: noinline nounwind uwtable
define dso_local i32 @main() #0 {
  %1 = alloca i32, align 4
  %2 = alloca i32, align 4
  %3 = alloca i32, align 4
  %4 = alloca i32, align 4
  %5 = alloca i32, align 4
  %6 = alloca i32, align 4
  %7 = alloca [13 x i32], align 16
  store i32 0, i32* %1, align 4
  store i32 0, i32* %6, align 4
  %8 = bitcast [13 x i32]* %7 to i8*
  call void @llvm.memcpy.p0i8.p0i8.i64(i8* align 16 %8, i8* align 16 bitcast ([13 x i32]* @__const.main.mon to i8*), i64 52, i1 false)
  %9 = call i32 (i8*, ...) @__isoc99_scanf(i8* getelementptr inbounds ([7 x i8], [7 x i8]* @.str, i64 0, i64 0), i32* %2, i32* %3, i32* %4)
  store i32 1, i32* %5, align 4
  br label %10

10:                                               ; preds = %21, %0
  %11 = load i32, i32* %5, align 4
  %12 = load i32, i32* %3, align 4
  %13 = icmp slt i32 %11, %12
  br i1 %13, label %14, label %24

14:                                               ; preds = %10
  %15 = load i32, i32* %6, align 4
  %16 = load i32, i32* %5, align 4
  %17 = sext i32 %16 to i64
  %18 = getelementptr inbounds [13 x i32], [13 x i32]* %7, i64 0, i64 %17
  %19 = load i32, i32* %18, align 4
  %20 = add nsw i32 %15, %19
  store i32 %20, i32* %6, align 4
  br label %21

21:                                               ; preds = %14
  %22 = load i32, i32* %5, align 4
  %23 = add nsw i32 %22, 1
  store i32 %23, i32* %5, align 4
  br label %10

24:                                               ; preds = %10
  %25 = load i32, i32* %2, align 4
  %26 = srem i32 %25, 400
  %27 = icmp eq i32 %26, 0
  br i1 %27, label %28, label %31

28:                                               ; preds = %24
  %29 = load i32, i32* %3, align 4
  %30 = icmp sgt i32 %29, 2
  br i1 %30, label %42, label %31

31:                                               ; preds = %28, %24
  %32 = load i32, i32* %2, align 4
  %33 = srem i32 %32, 4
  %34 = icmp eq i32 %33, 0
  br i1 %34, label %35, label %47

35:                                               ; preds = %31
  %36 = load i32, i32* %2, align 4
  %37 = srem i32 %36, 100
  %38 = icmp ne i32 %37, 0
  br i1 %38, label %39, label %47

39:                                               ; preds = %35
  %40 = load i32, i32* %3, align 4
  %41 = icmp sgt i32 %40, 2
  br i1 %41, label %42, label %47

42:                                               ; preds = %39, %28
  %43 = load i32, i32* %6, align 4
  %44 = load i32, i32* %4, align 4
  %45 = add nsw i32 %43, %44
  %46 = add nsw i32 %45, 1
  store i32 %46, i32* %6, align 4
  br label %51

47:                                               ; preds = %39, %35, %31
  %48 = load i32, i32* %6, align 4
  %49 = load i32, i32* %4, align 4
  %50 = add nsw i32 %48, %49
  store i32 %50, i32* %6, align 4
  br label %51

51:                                               ; preds = %47, %42
  %52 = load i32, i32* %6, align 4
  %53 = call i32 (i8*, ...) @printf(i8* getelementptr inbounds ([3 x i8], [3 x i8]* @.str.1, i64 0, i64 0), i32 %52)
  ret i32 0
}

; Function Attrs: argmemonly nounwind willreturn
declare void @llvm.memcpy.p0i8.p0i8.i64(i8* noalias nocapture writeonly, i8* noalias nocapture readonly, i64, i1 immarg) #1

declare dso_local i32 @__isoc99_scanf(i8*, ...) #2

declare dso_local i32 @printf(i8*, ...) #2


!llvm.module.flags = !{!0}
!llvm.ident = !{!1}

!0 = !{i32 1, !"wchar_size", i32 4}
!1 = !{!"clang version 10.0.0-4ubuntu1 "}
